	.cpu cortex-m4
	.eabi_attribute 20, 1
	.eabi_attribute 21, 1
	.eabi_attribute 23, 3
	.eabi_attribute 24, 1
	.eabi_attribute 25, 1
	.eabi_attribute 26, 1
	.eabi_attribute 30, 6
	.eabi_attribute 34, 1
	.eabi_attribute 18, 4
	.file	"misc_rpc_clnt.c"
	.text
.Ltext0:
	.section	.text.sc_misc_set_control,"ax",%progbits
	.align	1
	.global	sc_misc_set_control
	.syntax unified
	.thumb
	.thumb_func
	.fpu softvfp
	.type	sc_misc_set_control, %function
sc_misc_set_control:
.LFB0:
	.file 1 "D:\\Daten\\git\\NXP_SDK\\devices\\MIMX8QM6\\scfw_api\\svc\\misc\\misc_rpc_clnt.c"
	.loc 1 32 1
	@ args = 0, pretend = 0, frame = 56
	@ frame_needed = 0, uses_anonymous_args = 0
	push	{lr}
.LCFI0:
	sub	sp, sp, #60
.LCFI1:
	str	r0, [sp, #12]
	str	r2, [sp, #4]
	str	r3, [sp]
	mov	r3, r1	@ movhi
	strh	r3, [sp, #10]	@ movhi
	.loc 1 36 19
	movs	r3, #1
	strb	r3, [sp, #20]
	.loc 1 37 19
	movs	r3, #7
	strb	r3, [sp, #22]
	.loc 1 38 20
	movs	r3, #1
	strb	r3, [sp, #23]
	.loc 1 39 23
	ldr	r3, [sp, #4]
	str	r3, [sp, #24]
	.loc 1 40 23
	ldr	r3, [sp]
	str	r3, [sp, #28]
	.loc 1 41 23
	ldrh	r3, [sp, #10]	@ movhi
	strh	r3, [sp, #32]	@ movhi
	.loc 1 42 20
	movs	r3, #4
	strb	r3, [sp, #21]
	.loc 1 44 5
	add	r3, sp, #20
	movs	r2, #0
	mov	r1, r3
	ldr	r0, [sp, #12]
	bl	sc_call_rpc
	.loc 1 46 12
	ldrb	r3, [sp, #23]
	strb	r3, [sp, #55]
	.loc 1 47 12
	ldrb	r3, [sp, #55]	@ zero_extendqisi2
	.loc 1 48 1
	mov	r0, r3
	add	sp, sp, #60
.LCFI2:
	@ sp needed
	ldr	pc, [sp], #4
.LFE0:
	.size	sc_misc_set_control, .-sc_misc_set_control
	.section	.text.sc_misc_get_control,"ax",%progbits
	.align	1
	.global	sc_misc_get_control
	.syntax unified
	.thumb
	.thumb_func
	.fpu softvfp
	.type	sc_misc_get_control, %function
sc_misc_get_control:
.LFB1:
	.loc 1 52 1
	@ args = 0, pretend = 0, frame = 56
	@ frame_needed = 0, uses_anonymous_args = 0
	push	{lr}
.LCFI3:
	sub	sp, sp, #60
.LCFI4:
	str	r0, [sp, #12]
	str	r2, [sp, #4]
	str	r3, [sp]
	mov	r3, r1	@ movhi
	strh	r3, [sp, #10]	@ movhi
	.loc 1 56 19
	movs	r3, #1
	strb	r3, [sp, #20]
	.loc 1 57 19
	movs	r3, #7
	strb	r3, [sp, #22]
	.loc 1 58 20
	movs	r3, #2
	strb	r3, [sp, #23]
	.loc 1 59 23
	ldr	r3, [sp, #4]
	str	r3, [sp, #24]
	.loc 1 60 23
	ldrh	r3, [sp, #10]	@ movhi
	strh	r3, [sp, #28]	@ movhi
	.loc 1 61 20
	movs	r3, #3
	strb	r3, [sp, #21]
	.loc 1 63 5
	add	r3, sp, #20
	movs	r2, #0
	mov	r1, r3
	ldr	r0, [sp, #12]
	bl	sc_call_rpc
	.loc 1 65 8
	ldr	r3, [sp]
	cmp	r3, #0
	beq	.L4
	.loc 1 67 16
	ldr	r2, [sp, #24]
	.loc 1 67 14
	ldr	r3, [sp]
	str	r2, [r3]
.L4:
	.loc 1 70 12
	ldrb	r3, [sp, #23]
	strb	r3, [sp, #55]
	.loc 1 71 12
	ldrb	r3, [sp, #55]	@ zero_extendqisi2
	.loc 1 72 1
	mov	r0, r3
	add	sp, sp, #60
.LCFI5:
	@ sp needed
	ldr	pc, [sp], #4
.LFE1:
	.size	sc_misc_get_control, .-sc_misc_get_control
	.section	.text.sc_misc_set_max_dma_group,"ax",%progbits
	.align	1
	.global	sc_misc_set_max_dma_group
	.syntax unified
	.thumb
	.thumb_func
	.fpu softvfp
	.type	sc_misc_set_max_dma_group, %function
sc_misc_set_max_dma_group:
.LFB2:
	.loc 1 76 1
	@ args = 0, pretend = 0, frame = 48
	@ frame_needed = 0, uses_anonymous_args = 0
	push	{lr}
.LCFI6:
	sub	sp, sp, #52
.LCFI7:
	str	r0, [sp, #4]
	mov	r3, r1
	strb	r3, [sp, #3]
	mov	r3, r2
	strb	r3, [sp, #2]
	.loc 1 80 19
	movs	r3, #1
	strb	r3, [sp, #12]
	.loc 1 81 19
	movs	r3, #7
	strb	r3, [sp, #14]
	.loc 1 82 20
	movs	r3, #4
	strb	r3, [sp, #15]
	.loc 1 83 22
	ldrb	r3, [sp, #3]
	strb	r3, [sp, #16]
	.loc 1 84 22
	ldrb	r3, [sp, #2]
	strb	r3, [sp, #17]
	.loc 1 85 20
	movs	r3, #2
	strb	r3, [sp, #13]
	.loc 1 87 5
	add	r3, sp, #12
	movs	r2, #0
	mov	r1, r3
	ldr	r0, [sp, #4]
	bl	sc_call_rpc
	.loc 1 89 12
	ldrb	r3, [sp, #15]
	strb	r3, [sp, #47]
	.loc 1 90 12
	ldrb	r3, [sp, #47]	@ zero_extendqisi2
	.loc 1 91 1
	mov	r0, r3
	add	sp, sp, #52
.LCFI8:
	@ sp needed
	ldr	pc, [sp], #4
.LFE2:
	.size	sc_misc_set_max_dma_group, .-sc_misc_set_max_dma_group
	.section	.text.sc_misc_set_dma_group,"ax",%progbits
	.align	1
	.global	sc_misc_set_dma_group
	.syntax unified
	.thumb
	.thumb_func
	.fpu softvfp
	.type	sc_misc_set_dma_group, %function
sc_misc_set_dma_group:
.LFB3:
	.loc 1 95 1
	@ args = 0, pretend = 0, frame = 48
	@ frame_needed = 0, uses_anonymous_args = 0
	push	{lr}
.LCFI9:
	sub	sp, sp, #52
.LCFI10:
	str	r0, [sp, #4]
	mov	r3, r1
	strh	r3, [sp, #2]	@ movhi
	mov	r3, r2
	strb	r3, [sp, #1]
	.loc 1 99 19
	movs	r3, #1
	strb	r3, [sp, #12]
	.loc 1 100 19
	movs	r3, #7
	strb	r3, [sp, #14]
	.loc 1 101 20
	movs	r3, #5
	strb	r3, [sp, #15]
	.loc 1 102 23
	ldrh	r3, [sp, #2]	@ movhi
	strh	r3, [sp, #16]	@ movhi
	.loc 1 103 22
	ldrb	r3, [sp, #1]
	strb	r3, [sp, #18]
	.loc 1 104 20
	movs	r3, #2
	strb	r3, [sp, #13]
	.loc 1 106 5
	add	r3, sp, #12
	movs	r2, #0
	mov	r1, r3
	ldr	r0, [sp, #4]
	bl	sc_call_rpc
	.loc 1 108 12
	ldrb	r3, [sp, #15]
	strb	r3, [sp, #47]
	.loc 1 109 12
	ldrb	r3, [sp, #47]	@ zero_extendqisi2
	.loc 1 110 1
	mov	r0, r3
	add	sp, sp, #52
.LCFI11:
	@ sp needed
	ldr	pc, [sp], #4
.LFE3:
	.size	sc_misc_set_dma_group, .-sc_misc_set_dma_group
	.section	.text.sc_misc_seco_image_load,"ax",%progbits
	.align	1
	.global	sc_misc_seco_image_load
	.syntax unified
	.thumb
	.thumb_func
	.fpu softvfp
	.type	sc_misc_seco_image_load, %function
sc_misc_seco_image_load:
.LFB4:
	.loc 1 114 1
	@ args = 16, pretend = 0, frame = 56
	@ frame_needed = 0, uses_anonymous_args = 0
	push	{lr}
.LCFI12:
	sub	sp, sp, #60
.LCFI13:
	str	r0, [sp, #12]
	strd	r2, [sp]
	.loc 1 118 19
	movs	r3, #1
	strb	r3, [sp, #20]
	.loc 1 119 19
	movs	r3, #7
	strb	r3, [sp, #22]
	.loc 1 120 20
	movs	r3, #8
	strb	r3, [sp, #23]
	.loc 1 121 25
	ldrd	r0, [sp]
	mov	r2, #0
	mov	r3, #0
	movs	r2, r1
	movs	r3, #0
	mov	r3, r2
	.loc 1 121 23
	str	r3, [sp, #24]
	.loc 1 122 25
	ldr	r3, [sp]
	.loc 1 122 23
	str	r3, [sp, #28]
	.loc 1 123 25
	ldrd	r0, [sp, #64]
	mov	r2, #0
	mov	r3, #0
	movs	r2, r1
	movs	r3, #0
	mov	r3, r2
	.loc 1 123 23
	str	r3, [sp, #32]
	.loc 1 124 26
	ldr	r3, [sp, #64]
	.loc 1 124 24
	str	r3, [sp, #36]
	.loc 1 125 24
	ldr	r3, [sp, #72]
	str	r3, [sp, #40]
	.loc 1 126 25
	ldrb	r3, [sp, #76]	@ zero_extendqisi2
	cmp	r3, #0
	ite	ne
	movne	r3, #1
	moveq	r3, #0
	uxtb	r3, r3
	.loc 1 126 23
	strb	r3, [sp, #44]
	.loc 1 127 20
	movs	r3, #7
	strb	r3, [sp, #21]
	.loc 1 129 5
	add	r3, sp, #20
	movs	r2, #0
	mov	r1, r3
	ldr	r0, [sp, #12]
	bl	sc_call_rpc
	.loc 1 131 12
	ldrb	r3, [sp, #23]
	strb	r3, [sp, #55]
	.loc 1 132 12
	ldrb	r3, [sp, #55]	@ zero_extendqisi2
	.loc 1 133 1
	mov	r0, r3
	add	sp, sp, #60
.LCFI14:
	@ sp needed
	ldr	pc, [sp], #4
.LFE4:
	.size	sc_misc_seco_image_load, .-sc_misc_seco_image_load
	.section	.text.sc_misc_seco_authenticate,"ax",%progbits
	.align	1
	.global	sc_misc_seco_authenticate
	.syntax unified
	.thumb
	.thumb_func
	.fpu softvfp
	.type	sc_misc_seco_authenticate, %function
sc_misc_seco_authenticate:
.LFB5:
	.loc 1 137 1
	@ args = 0, pretend = 0, frame = 56
	@ frame_needed = 0, uses_anonymous_args = 0
	push	{lr}
.LCFI15:
	sub	sp, sp, #60
.LCFI16:
	str	r0, [sp, #12]
	strd	r2, [sp]
	mov	r3, r1
	strb	r3, [sp, #11]
	.loc 1 141 19
	movs	r3, #1
	strb	r3, [sp, #20]
	.loc 1 142 19
	movs	r3, #7
	strb	r3, [sp, #22]
	.loc 1 143 20
	movs	r3, #9
	strb	r3, [sp, #23]
	.loc 1 144 25
	ldrd	r0, [sp]
	mov	r2, #0
	mov	r3, #0
	movs	r2, r1
	movs	r3, #0
	mov	r3, r2
	.loc 1 144 23
	str	r3, [sp, #24]
	.loc 1 145 25
	ldr	r3, [sp]
	.loc 1 145 23
	str	r3, [sp, #28]
	.loc 1 146 22
	ldrb	r3, [sp, #11]
	strb	r3, [sp, #32]
	.loc 1 147 20
	movs	r3, #4
	strb	r3, [sp, #21]
	.loc 1 149 5
	add	r3, sp, #20
	movs	r2, #0
	mov	r1, r3
	ldr	r0, [sp, #12]
	bl	sc_call_rpc
	.loc 1 151 12
	ldrb	r3, [sp, #23]
	strb	r3, [sp, #55]
	.loc 1 152 12
	ldrb	r3, [sp, #55]	@ zero_extendqisi2
	.loc 1 153 1
	mov	r0, r3
	add	sp, sp, #60
.LCFI17:
	@ sp needed
	ldr	pc, [sp], #4
.LFE5:
	.size	sc_misc_seco_authenticate, .-sc_misc_seco_authenticate
	.section	.text.sc_misc_seco_fuse_write,"ax",%progbits
	.align	1
	.global	sc_misc_seco_fuse_write
	.syntax unified
	.thumb
	.thumb_func
	.fpu softvfp
	.type	sc_misc_seco_fuse_write, %function
sc_misc_seco_fuse_write:
.LFB6:
	.loc 1 156 1
	@ args = 0, pretend = 0, frame = 56
	@ frame_needed = 0, uses_anonymous_args = 0
	push	{lr}
.LCFI18:
	sub	sp, sp, #60
.LCFI19:
	str	r0, [sp, #12]
	strd	r2, [sp]
	.loc 1 160 19
	movs	r3, #1
	strb	r3, [sp, #20]
	.loc 1 161 19
	movs	r3, #7
	strb	r3, [sp, #22]
	.loc 1 162 20
	movs	r3, #20
	strb	r3, [sp, #23]
	.loc 1 163 25
	ldrd	r0, [sp]
	mov	r2, #0
	mov	r3, #0
	movs	r2, r1
	movs	r3, #0
	mov	r3, r2
	.loc 1 163 23
	str	r3, [sp, #24]
	.loc 1 164 25
	ldr	r3, [sp]
	.loc 1 164 23
	str	r3, [sp, #28]
	.loc 1 165 20
	movs	r3, #3
	strb	r3, [sp, #21]
	.loc 1 167 5
	add	r3, sp, #20
	movs	r2, #0
	mov	r1, r3
	ldr	r0, [sp, #12]
	bl	sc_call_rpc
	.loc 1 169 12
	ldrb	r3, [sp, #23]
	strb	r3, [sp, #55]
	.loc 1 170 12
	ldrb	r3, [sp, #55]	@ zero_extendqisi2
	.loc 1 171 1
	mov	r0, r3
	add	sp, sp, #60
.LCFI20:
	@ sp needed
	ldr	pc, [sp], #4
.LFE6:
	.size	sc_misc_seco_fuse_write, .-sc_misc_seco_fuse_write
	.section	.text.sc_misc_seco_enable_debug,"ax",%progbits
	.align	1
	.global	sc_misc_seco_enable_debug
	.syntax unified
	.thumb
	.thumb_func
	.fpu softvfp
	.type	sc_misc_seco_enable_debug, %function
sc_misc_seco_enable_debug:
.LFB7:
	.loc 1 174 1
	@ args = 0, pretend = 0, frame = 56
	@ frame_needed = 0, uses_anonymous_args = 0
	push	{lr}
.LCFI21:
	sub	sp, sp, #60
.LCFI22:
	str	r0, [sp, #12]
	strd	r2, [sp]
	.loc 1 178 19
	movs	r3, #1
	strb	r3, [sp, #20]
	.loc 1 179 19
	movs	r3, #7
	strb	r3, [sp, #22]
	.loc 1 180 20
	movs	r3, #21
	strb	r3, [sp, #23]
	.loc 1 181 25
	ldrd	r0, [sp]
	mov	r2, #0
	mov	r3, #0
	movs	r2, r1
	movs	r3, #0
	mov	r3, r2
	.loc 1 181 23
	str	r3, [sp, #24]
	.loc 1 182 25
	ldr	r3, [sp]
	.loc 1 182 23
	str	r3, [sp, #28]
	.loc 1 183 20
	movs	r3, #3
	strb	r3, [sp, #21]
	.loc 1 185 5
	add	r3, sp, #20
	movs	r2, #0
	mov	r1, r3
	ldr	r0, [sp, #12]
	bl	sc_call_rpc
	.loc 1 187 12
	ldrb	r3, [sp, #23]
	strb	r3, [sp, #55]
	.loc 1 188 12
	ldrb	r3, [sp, #55]	@ zero_extendqisi2
	.loc 1 189 1
	mov	r0, r3
	add	sp, sp, #60
.LCFI23:
	@ sp needed
	ldr	pc, [sp], #4
.LFE7:
	.size	sc_misc_seco_enable_debug, .-sc_misc_seco_enable_debug
	.section	.text.sc_misc_seco_forward_lifecycle,"ax",%progbits
	.align	1
	.global	sc_misc_seco_forward_lifecycle
	.syntax unified
	.thumb
	.thumb_func
	.fpu softvfp
	.type	sc_misc_seco_forward_lifecycle, %function
sc_misc_seco_forward_lifecycle:
.LFB8:
	.loc 1 192 1
	@ args = 0, pretend = 0, frame = 48
	@ frame_needed = 0, uses_anonymous_args = 0
	push	{lr}
.LCFI24:
	sub	sp, sp, #52
.LCFI25:
	str	r0, [sp, #4]
	str	r1, [sp]
	.loc 1 196 19
	movs	r3, #1
	strb	r3, [sp, #12]
	.loc 1 197 19
	movs	r3, #7
	strb	r3, [sp, #14]
	.loc 1 198 20
	movs	r3, #22
	strb	r3, [sp, #15]
	.loc 1 199 23
	ldr	r3, [sp]
	str	r3, [sp, #16]
	.loc 1 200 20
	movs	r3, #2
	strb	r3, [sp, #13]
	.loc 1 202 5
	add	r3, sp, #12
	movs	r2, #0
	mov	r1, r3
	ldr	r0, [sp, #4]
	bl	sc_call_rpc
	.loc 1 204 12
	ldrb	r3, [sp, #15]
	strb	r3, [sp, #47]
	.loc 1 205 12
	ldrb	r3, [sp, #47]	@ zero_extendqisi2
	.loc 1 206 1
	mov	r0, r3
	add	sp, sp, #52
.LCFI26:
	@ sp needed
	ldr	pc, [sp], #4
.LFE8:
	.size	sc_misc_seco_forward_lifecycle, .-sc_misc_seco_forward_lifecycle
	.section	.text.sc_misc_seco_return_lifecycle,"ax",%progbits
	.align	1
	.global	sc_misc_seco_return_lifecycle
	.syntax unified
	.thumb
	.thumb_func
	.fpu softvfp
	.type	sc_misc_seco_return_lifecycle, %function
sc_misc_seco_return_lifecycle:
.LFB9:
	.loc 1 209 1
	@ args = 0, pretend = 0, frame = 56
	@ frame_needed = 0, uses_anonymous_args = 0
	push	{lr}
.LCFI27:
	sub	sp, sp, #60
.LCFI28:
	str	r0, [sp, #12]
	strd	r2, [sp]
	.loc 1 213 19
	movs	r3, #1
	strb	r3, [sp, #20]
	.loc 1 214 19
	movs	r3, #7
	strb	r3, [sp, #22]
	.loc 1 215 20
	movs	r3, #23
	strb	r3, [sp, #23]
	.loc 1 216 25
	ldrd	r0, [sp]
	mov	r2, #0
	mov	r3, #0
	movs	r2, r1
	movs	r3, #0
	mov	r3, r2
	.loc 1 216 23
	str	r3, [sp, #24]
	.loc 1 217 25
	ldr	r3, [sp]
	.loc 1 217 23
	str	r3, [sp, #28]
	.loc 1 218 20
	movs	r3, #3
	strb	r3, [sp, #21]
	.loc 1 220 5
	add	r3, sp, #20
	movs	r2, #0
	mov	r1, r3
	ldr	r0, [sp, #12]
	bl	sc_call_rpc
	.loc 1 222 12
	ldrb	r3, [sp, #23]
	strb	r3, [sp, #55]
	.loc 1 223 12
	ldrb	r3, [sp, #55]	@ zero_extendqisi2
	.loc 1 224 1
	mov	r0, r3
	add	sp, sp, #60
.LCFI29:
	@ sp needed
	ldr	pc, [sp], #4
.LFE9:
	.size	sc_misc_seco_return_lifecycle, .-sc_misc_seco_return_lifecycle
	.section	.text.sc_misc_seco_build_info,"ax",%progbits
	.align	1
	.global	sc_misc_seco_build_info
	.syntax unified
	.thumb
	.thumb_func
	.fpu softvfp
	.type	sc_misc_seco_build_info, %function
sc_misc_seco_build_info:
.LFB10:
	.loc 1 228 1
	@ args = 0, pretend = 0, frame = 48
	@ frame_needed = 0, uses_anonymous_args = 0
	push	{lr}
.LCFI30:
	sub	sp, sp, #52
.LCFI31:
	str	r0, [sp, #12]
	str	r1, [sp, #8]
	str	r2, [sp, #4]
	.loc 1 231 19
	movs	r3, #1
	strb	r3, [sp, #16]
	.loc 1 232 19
	movs	r3, #7
	strb	r3, [sp, #18]
	.loc 1 233 20
	movs	r3, #24
	strb	r3, [sp, #19]
	.loc 1 234 20
	movs	r3, #1
	strb	r3, [sp, #17]
	.loc 1 236 5
	add	r3, sp, #16
	movs	r2, #0
	mov	r1, r3
	ldr	r0, [sp, #12]
	bl	sc_call_rpc
	.loc 1 238 8
	ldr	r3, [sp, #8]
	cmp	r3, #0
	beq	.L23
	.loc 1 240 20
	ldr	r2, [sp, #20]
	.loc 1 240 18
	ldr	r3, [sp, #8]
	str	r2, [r3]
.L23:
	.loc 1 243 8
	ldr	r3, [sp, #4]
	cmp	r3, #0
	beq	.L26
	.loc 1 245 19
	ldr	r2, [sp, #24]
	.loc 1 245 17
	ldr	r3, [sp, #4]
	str	r2, [r3]
	.loc 1 248 5
	nop
.L26:
	nop
	.loc 1 249 1
	add	sp, sp, #52
.LCFI32:
	@ sp needed
	ldr	pc, [sp], #4
.LFE10:
	.size	sc_misc_seco_build_info, .-sc_misc_seco_build_info
	.section	.text.sc_misc_seco_chip_info,"ax",%progbits
	.align	1
	.global	sc_misc_seco_chip_info
	.syntax unified
	.thumb
	.thumb_func
	.fpu softvfp
	.type	sc_misc_seco_chip_info, %function
sc_misc_seco_chip_info:
.LFB11:
	.loc 1 253 1
	@ args = 4, pretend = 0, frame = 56
	@ frame_needed = 0, uses_anonymous_args = 0
	push	{lr}
.LCFI33:
	sub	sp, sp, #60
.LCFI34:
	str	r0, [sp, #12]
	str	r1, [sp, #8]
	str	r2, [sp, #4]
	str	r3, [sp]
	.loc 1 257 19
	movs	r3, #1
	strb	r3, [sp, #20]
	.loc 1 258 19
	movs	r3, #7
	strb	r3, [sp, #22]
	.loc 1 259 20
	movs	r3, #25
	strb	r3, [sp, #23]
	.loc 1 260 20
	movs	r3, #1
	strb	r3, [sp, #21]
	.loc 1 262 5
	add	r3, sp, #20
	movs	r2, #0
	mov	r1, r3
	ldr	r0, [sp, #12]
	bl	sc_call_rpc
	.loc 1 264 8
	ldr	r3, [sp]
	cmp	r3, #0
	beq	.L28
	.loc 1 266 18
	ldr	r2, [sp, #24]
	.loc 1 266 16
	ldr	r3, [sp]
	str	r2, [r3]
.L28:
	.loc 1 269 8
	ldr	r3, [sp, #64]
	cmp	r3, #0
	beq	.L29
	.loc 1 271 18
	ldr	r2, [sp, #28]
	.loc 1 271 16
	ldr	r3, [sp, #64]
	str	r2, [r3]
.L29:
	.loc 1 274 8
	ldr	r3, [sp, #8]
	cmp	r3, #0
	beq	.L30
	.loc 1 276 15
	ldrh	r2, [sp, #32]
	.loc 1 276 13
	ldr	r3, [sp, #8]
	strh	r2, [r3]	@ movhi
.L30:
	.loc 1 279 8
	ldr	r3, [sp, #4]
	cmp	r3, #0
	beq	.L31
	.loc 1 281 22
	ldrh	r2, [sp, #34]
	.loc 1 281 20
	ldr	r3, [sp, #4]
	strh	r2, [r3]	@ movhi
.L31:
	.loc 1 284 12
	ldrb	r3, [sp, #23]
	strb	r3, [sp, #55]
	.loc 1 285 12
	ldrb	r3, [sp, #55]	@ zero_extendqisi2
	.loc 1 286 1
	mov	r0, r3
	add	sp, sp, #60
.LCFI35:
	@ sp needed
	ldr	pc, [sp], #4
.LFE11:
	.size	sc_misc_seco_chip_info, .-sc_misc_seco_chip_info
	.section	.text.sc_misc_seco_attest_mode,"ax",%progbits
	.align	1
	.global	sc_misc_seco_attest_mode
	.syntax unified
	.thumb
	.thumb_func
	.fpu softvfp
	.type	sc_misc_seco_attest_mode, %function
sc_misc_seco_attest_mode:
.LFB12:
	.loc 1 289 1
	@ args = 0, pretend = 0, frame = 48
	@ frame_needed = 0, uses_anonymous_args = 0
	push	{lr}
.LCFI36:
	sub	sp, sp, #52
.LCFI37:
	str	r0, [sp, #4]
	str	r1, [sp]
	.loc 1 293 19
	movs	r3, #1
	strb	r3, [sp, #12]
	.loc 1 294 19
	movs	r3, #7
	strb	r3, [sp, #14]
	.loc 1 295 20
	movs	r3, #27
	strb	r3, [sp, #15]
	.loc 1 296 23
	ldr	r3, [sp]
	str	r3, [sp, #16]
	.loc 1 297 20
	movs	r3, #2
	strb	r3, [sp, #13]
	.loc 1 299 5
	add	r3, sp, #12
	movs	r2, #0
	mov	r1, r3
	ldr	r0, [sp, #4]
	bl	sc_call_rpc
	.loc 1 301 12
	ldrb	r3, [sp, #15]
	strb	r3, [sp, #47]
	.loc 1 302 12
	ldrb	r3, [sp, #47]	@ zero_extendqisi2
	.loc 1 303 1
	mov	r0, r3
	add	sp, sp, #52
.LCFI38:
	@ sp needed
	ldr	pc, [sp], #4
.LFE12:
	.size	sc_misc_seco_attest_mode, .-sc_misc_seco_attest_mode
	.section	.text.sc_misc_seco_attest,"ax",%progbits
	.align	1
	.global	sc_misc_seco_attest
	.syntax unified
	.thumb
	.thumb_func
	.fpu softvfp
	.type	sc_misc_seco_attest, %function
sc_misc_seco_attest:
.LFB13:
	.loc 1 306 1
	@ args = 0, pretend = 0, frame = 56
	@ frame_needed = 0, uses_anonymous_args = 0
	push	{lr}
.LCFI39:
	sub	sp, sp, #60
.LCFI40:
	str	r0, [sp, #12]
	strd	r2, [sp]
	.loc 1 310 19
	movs	r3, #1
	strb	r3, [sp, #20]
	.loc 1 311 19
	movs	r3, #7
	strb	r3, [sp, #22]
	.loc 1 312 20
	movs	r3, #28
	strb	r3, [sp, #23]
	.loc 1 313 25
	ldrd	r0, [sp]
	mov	r2, #0
	mov	r3, #0
	movs	r2, r1
	movs	r3, #0
	mov	r3, r2
	.loc 1 313 23
	str	r3, [sp, #24]
	.loc 1 314 25
	ldr	r3, [sp]
	.loc 1 314 23
	str	r3, [sp, #28]
	.loc 1 315 20
	movs	r3, #3
	strb	r3, [sp, #21]
	.loc 1 317 5
	add	r3, sp, #20
	movs	r2, #0
	mov	r1, r3
	ldr	r0, [sp, #12]
	bl	sc_call_rpc
	.loc 1 319 12
	ldrb	r3, [sp, #23]
	strb	r3, [sp, #55]
	.loc 1 320 12
	ldrb	r3, [sp, #55]	@ zero_extendqisi2
	.loc 1 321 1
	mov	r0, r3
	add	sp, sp, #60
.LCFI41:
	@ sp needed
	ldr	pc, [sp], #4
.LFE13:
	.size	sc_misc_seco_attest, .-sc_misc_seco_attest
	.section	.text.sc_misc_seco_get_attest_pkey,"ax",%progbits
	.align	1
	.global	sc_misc_seco_get_attest_pkey
	.syntax unified
	.thumb
	.thumb_func
	.fpu softvfp
	.type	sc_misc_seco_get_attest_pkey, %function
sc_misc_seco_get_attest_pkey:
.LFB14:
	.loc 1 324 1
	@ args = 0, pretend = 0, frame = 56
	@ frame_needed = 0, uses_anonymous_args = 0
	push	{lr}
.LCFI42:
	sub	sp, sp, #60
.LCFI43:
	str	r0, [sp, #12]
	strd	r2, [sp]
	.loc 1 328 19
	movs	r3, #1
	strb	r3, [sp, #20]
	.loc 1 329 19
	movs	r3, #7
	strb	r3, [sp, #22]
	.loc 1 330 20
	movs	r3, #31
	strb	r3, [sp, #23]
	.loc 1 331 25
	ldrd	r0, [sp]
	mov	r2, #0
	mov	r3, #0
	movs	r2, r1
	movs	r3, #0
	mov	r3, r2
	.loc 1 331 23
	str	r3, [sp, #24]
	.loc 1 332 25
	ldr	r3, [sp]
	.loc 1 332 23
	str	r3, [sp, #28]
	.loc 1 333 20
	movs	r3, #3
	strb	r3, [sp, #21]
	.loc 1 335 5
	add	r3, sp, #20
	movs	r2, #0
	mov	r1, r3
	ldr	r0, [sp, #12]
	bl	sc_call_rpc
	.loc 1 337 12
	ldrb	r3, [sp, #23]
	strb	r3, [sp, #55]
	.loc 1 338 12
	ldrb	r3, [sp, #55]	@ zero_extendqisi2
	.loc 1 339 1
	mov	r0, r3
	add	sp, sp, #60
.LCFI44:
	@ sp needed
	ldr	pc, [sp], #4
.LFE14:
	.size	sc_misc_seco_get_attest_pkey, .-sc_misc_seco_get_attest_pkey
	.section	.text.sc_misc_seco_get_attest_sign,"ax",%progbits
	.align	1
	.global	sc_misc_seco_get_attest_sign
	.syntax unified
	.thumb
	.thumb_func
	.fpu softvfp
	.type	sc_misc_seco_get_attest_sign, %function
sc_misc_seco_get_attest_sign:
.LFB15:
	.loc 1 342 1
	@ args = 0, pretend = 0, frame = 56
	@ frame_needed = 0, uses_anonymous_args = 0
	push	{lr}
.LCFI45:
	sub	sp, sp, #60
.LCFI46:
	str	r0, [sp, #12]
	strd	r2, [sp]
	.loc 1 346 19
	movs	r3, #1
	strb	r3, [sp, #20]
	.loc 1 347 19
	movs	r3, #7
	strb	r3, [sp, #22]
	.loc 1 348 20
	movs	r3, #29
	strb	r3, [sp, #23]
	.loc 1 349 25
	ldrd	r0, [sp]
	mov	r2, #0
	mov	r3, #0
	movs	r2, r1
	movs	r3, #0
	mov	r3, r2
	.loc 1 349 23
	str	r3, [sp, #24]
	.loc 1 350 25
	ldr	r3, [sp]
	.loc 1 350 23
	str	r3, [sp, #28]
	.loc 1 351 20
	movs	r3, #3
	strb	r3, [sp, #21]
	.loc 1 353 5
	add	r3, sp, #20
	movs	r2, #0
	mov	r1, r3
	ldr	r0, [sp, #12]
	bl	sc_call_rpc
	.loc 1 355 12
	ldrb	r3, [sp, #23]
	strb	r3, [sp, #55]
	.loc 1 356 12
	ldrb	r3, [sp, #55]	@ zero_extendqisi2
	.loc 1 357 1
	mov	r0, r3
	add	sp, sp, #60
.LCFI47:
	@ sp needed
	ldr	pc, [sp], #4
.LFE15:
	.size	sc_misc_seco_get_attest_sign, .-sc_misc_seco_get_attest_sign
	.section	.text.sc_misc_seco_attest_verify,"ax",%progbits
	.align	1
	.global	sc_misc_seco_attest_verify
	.syntax unified
	.thumb
	.thumb_func
	.fpu softvfp
	.type	sc_misc_seco_attest_verify, %function
sc_misc_seco_attest_verify:
.LFB16:
	.loc 1 360 1
	@ args = 0, pretend = 0, frame = 56
	@ frame_needed = 0, uses_anonymous_args = 0
	push	{lr}
.LCFI48:
	sub	sp, sp, #60
.LCFI49:
	str	r0, [sp, #12]
	strd	r2, [sp]
	.loc 1 364 19
	movs	r3, #1
	strb	r3, [sp, #20]
	.loc 1 365 19
	movs	r3, #7
	strb	r3, [sp, #22]
	.loc 1 366 20
	movs	r3, #30
	strb	r3, [sp, #23]
	.loc 1 367 25
	ldrd	r0, [sp]
	mov	r2, #0
	mov	r3, #0
	movs	r2, r1
	movs	r3, #0
	mov	r3, r2
	.loc 1 367 23
	str	r3, [sp, #24]
	.loc 1 368 25
	ldr	r3, [sp]
	.loc 1 368 23
	str	r3, [sp, #28]
	.loc 1 369 20
	movs	r3, #3
	strb	r3, [sp, #21]
	.loc 1 371 5
	add	r3, sp, #20
	movs	r2, #0
	mov	r1, r3
	ldr	r0, [sp, #12]
	bl	sc_call_rpc
	.loc 1 373 12
	ldrb	r3, [sp, #23]
	strb	r3, [sp, #55]
	.loc 1 374 12
	ldrb	r3, [sp, #55]	@ zero_extendqisi2
	.loc 1 375 1
	mov	r0, r3
	add	sp, sp, #60
.LCFI50:
	@ sp needed
	ldr	pc, [sp], #4
.LFE16:
	.size	sc_misc_seco_attest_verify, .-sc_misc_seco_attest_verify
	.section	.text.sc_misc_seco_commit,"ax",%progbits
	.align	1
	.global	sc_misc_seco_commit
	.syntax unified
	.thumb
	.thumb_func
	.fpu softvfp
	.type	sc_misc_seco_commit, %function
sc_misc_seco_commit:
.LFB17:
	.loc 1 378 1
	@ args = 0, pretend = 0, frame = 48
	@ frame_needed = 0, uses_anonymous_args = 0
	push	{lr}
.LCFI51:
	sub	sp, sp, #52
.LCFI52:
	str	r0, [sp, #4]
	str	r1, [sp]
	.loc 1 382 19
	movs	r3, #1
	strb	r3, [sp, #12]
	.loc 1 383 19
	movs	r3, #7
	strb	r3, [sp, #14]
	.loc 1 384 20
	movs	r3, #32
	strb	r3, [sp, #15]
	.loc 1 385 25
	ldr	r3, [sp]
	ldr	r3, [r3]
	.loc 1 385 23
	str	r3, [sp, #16]
	.loc 1 386 20
	movs	r3, #2
	strb	r3, [sp, #13]
	.loc 1 388 5
	add	r3, sp, #12
	movs	r2, #0
	mov	r1, r3
	ldr	r0, [sp, #4]
	bl	sc_call_rpc
	.loc 1 390 13
	ldr	r2, [sp, #16]
	.loc 1 390 11
	ldr	r3, [sp]
	str	r2, [r3]
	.loc 1 391 12
	ldrb	r3, [sp, #15]
	strb	r3, [sp, #47]
	.loc 1 392 12
	ldrb	r3, [sp, #47]	@ zero_extendqisi2
	.loc 1 393 1
	mov	r0, r3
	add	sp, sp, #52
.LCFI53:
	@ sp needed
	ldr	pc, [sp], #4
.LFE17:
	.size	sc_misc_seco_commit, .-sc_misc_seco_commit
	.section	.text.sc_misc_debug_out,"ax",%progbits
	.align	1
	.global	sc_misc_debug_out
	.syntax unified
	.thumb
	.thumb_func
	.fpu softvfp
	.type	sc_misc_debug_out, %function
sc_misc_debug_out:
.LFB18:
	.loc 1 396 1
	@ args = 0, pretend = 0, frame = 40
	@ frame_needed = 0, uses_anonymous_args = 0
	push	{lr}
.LCFI54:
	sub	sp, sp, #44
.LCFI55:
	str	r0, [sp, #4]
	mov	r3, r1
	strb	r3, [sp, #3]
	.loc 1 399 19
	movs	r3, #1
	strb	r3, [sp, #8]
	.loc 1 400 19
	movs	r3, #7
	strb	r3, [sp, #10]
	.loc 1 401 20
	movs	r3, #10
	strb	r3, [sp, #11]
	.loc 1 402 22
	ldrb	r3, [sp, #3]
	strb	r3, [sp, #12]
	.loc 1 403 20
	movs	r3, #2
	strb	r3, [sp, #9]
	.loc 1 405 5
	add	r3, sp, #8
	movs	r2, #0
	mov	r1, r3
	ldr	r0, [sp, #4]
	bl	sc_call_rpc
	.loc 1 407 5
	nop
	.loc 1 408 1
	add	sp, sp, #44
.LCFI56:
	@ sp needed
	ldr	pc, [sp], #4
.LFE18:
	.size	sc_misc_debug_out, .-sc_misc_debug_out
	.section	.text.sc_misc_waveform_capture,"ax",%progbits
	.align	1
	.global	sc_misc_waveform_capture
	.syntax unified
	.thumb
	.thumb_func
	.fpu softvfp
	.type	sc_misc_waveform_capture, %function
sc_misc_waveform_capture:
.LFB19:
	.loc 1 411 1
	@ args = 0, pretend = 0, frame = 48
	@ frame_needed = 0, uses_anonymous_args = 0
	push	{lr}
.LCFI57:
	sub	sp, sp, #52
.LCFI58:
	str	r0, [sp, #4]
	mov	r3, r1
	strb	r3, [sp, #3]
	.loc 1 415 19
	movs	r3, #1
	strb	r3, [sp, #12]
	.loc 1 416 19
	movs	r3, #7
	strb	r3, [sp, #14]
	.loc 1 417 20
	movs	r3, #6
	strb	r3, [sp, #15]
	.loc 1 418 24
	ldrb	r3, [sp, #3]	@ zero_extendqisi2
	cmp	r3, #0
	ite	ne
	movne	r3, #1
	moveq	r3, #0
	uxtb	r3, r3
	.loc 1 418 22
	strb	r3, [sp, #16]
	.loc 1 419 20
	movs	r3, #2
	strb	r3, [sp, #13]
	.loc 1 421 5
	add	r3, sp, #12
	movs	r2, #0
	mov	r1, r3
	ldr	r0, [sp, #4]
	bl	sc_call_rpc
	.loc 1 423 12
	ldrb	r3, [sp, #15]
	strb	r3, [sp, #47]
	.loc 1 424 12
	ldrb	r3, [sp, #47]	@ zero_extendqisi2
	.loc 1 425 1
	mov	r0, r3
	add	sp, sp, #52
.LCFI59:
	@ sp needed
	ldr	pc, [sp], #4
.LFE19:
	.size	sc_misc_waveform_capture, .-sc_misc_waveform_capture
	.section	.text.sc_misc_build_info,"ax",%progbits
	.align	1
	.global	sc_misc_build_info
	.syntax unified
	.thumb
	.thumb_func
	.fpu softvfp
	.type	sc_misc_build_info, %function
sc_misc_build_info:
.LFB20:
	.loc 1 429 1
	@ args = 0, pretend = 0, frame = 48
	@ frame_needed = 0, uses_anonymous_args = 0
	push	{lr}
.LCFI60:
	sub	sp, sp, #52
.LCFI61:
	str	r0, [sp, #12]
	str	r1, [sp, #8]
	str	r2, [sp, #4]
	.loc 1 432 19
	movs	r3, #1
	strb	r3, [sp, #16]
	.loc 1 433 19
	movs	r3, #7
	strb	r3, [sp, #18]
	.loc 1 434 20
	movs	r3, #15
	strb	r3, [sp, #19]
	.loc 1 435 20
	movs	r3, #1
	strb	r3, [sp, #17]
	.loc 1 437 5
	add	r3, sp, #16
	movs	r2, #0
	mov	r1, r3
	ldr	r0, [sp, #12]
	bl	sc_call_rpc
	.loc 1 439 8
	ldr	r3, [sp, #8]
	cmp	r3, #0
	beq	.L50
	.loc 1 441 18
	ldr	r2, [sp, #20]
	.loc 1 441 16
	ldr	r3, [sp, #8]
	str	r2, [r3]
.L50:
	.loc 1 444 8
	ldr	r3, [sp, #4]
	cmp	r3, #0
	beq	.L53
	.loc 1 446 19
	ldr	r2, [sp, #24]
	.loc 1 446 17
	ldr	r3, [sp, #4]
	str	r2, [r3]
	.loc 1 449 5
	nop
.L53:
	nop
	.loc 1 450 1
	add	sp, sp, #52
.LCFI62:
	@ sp needed
	ldr	pc, [sp], #4
.LFE20:
	.size	sc_misc_build_info, .-sc_misc_build_info
	.section	.text.sc_misc_api_ver,"ax",%progbits
	.align	1
	.global	sc_misc_api_ver
	.syntax unified
	.thumb
	.thumb_func
	.fpu softvfp
	.type	sc_misc_api_ver, %function
sc_misc_api_ver:
.LFB21:
	.loc 1 454 1
	@ args = 4, pretend = 0, frame = 48
	@ frame_needed = 0, uses_anonymous_args = 0
	push	{lr}
.LCFI63:
	sub	sp, sp, #52
.LCFI64:
	str	r0, [sp, #12]
	str	r1, [sp, #8]
	str	r2, [sp, #4]
	str	r3, [sp]
	.loc 1 457 19
	movs	r3, #1
	strb	r3, [sp, #16]
	.loc 1 458 19
	movs	r3, #7
	strb	r3, [sp, #18]
	.loc 1 459 20
	movs	r3, #35
	strb	r3, [sp, #19]
	.loc 1 460 20
	movs	r3, #1
	strb	r3, [sp, #17]
	.loc 1 462 5
	add	r3, sp, #16
	movs	r2, #0
	mov	r1, r3
	ldr	r0, [sp, #12]
	bl	sc_call_rpc
	.loc 1 464 8
	ldr	r3, [sp, #8]
	cmp	r3, #0
	beq	.L55
	.loc 1 466 17
	ldr	r3, [sp, #8]
	movs	r2, #1
	strh	r2, [r3]	@ movhi
.L55:
	.loc 1 469 8
	ldr	r3, [sp, #4]
	cmp	r3, #0
	beq	.L56
	.loc 1 471 17
	ldr	r3, [sp, #4]
	movs	r2, #2
	strh	r2, [r3]	@ movhi
.L56:
	.loc 1 474 8
	ldr	r3, [sp]
	cmp	r3, #0
	beq	.L57
	.loc 1 476 19
	ldrh	r2, [sp, #24]
	.loc 1 476 17
	ldr	r3, [sp]
	strh	r2, [r3]	@ movhi
.L57:
	.loc 1 479 8
	ldr	r3, [sp, #56]
	cmp	r3, #0
	beq	.L60
	.loc 1 481 19
	ldrh	r2, [sp, #26]
	.loc 1 481 17
	ldr	r3, [sp, #56]
	strh	r2, [r3]	@ movhi
	.loc 1 484 5
	nop
.L60:
	nop
	.loc 1 485 1
	add	sp, sp, #52
.LCFI65:
	@ sp needed
	ldr	pc, [sp], #4
.LFE21:
	.size	sc_misc_api_ver, .-sc_misc_api_ver
	.section	.text.sc_misc_unique_id,"ax",%progbits
	.align	1
	.global	sc_misc_unique_id
	.syntax unified
	.thumb
	.thumb_func
	.fpu softvfp
	.type	sc_misc_unique_id, %function
sc_misc_unique_id:
.LFB22:
	.loc 1 489 1
	@ args = 0, pretend = 0, frame = 48
	@ frame_needed = 0, uses_anonymous_args = 0
	push	{lr}
.LCFI66:
	sub	sp, sp, #52
.LCFI67:
	str	r0, [sp, #12]
	str	r1, [sp, #8]
	str	r2, [sp, #4]
	.loc 1 492 19
	movs	r3, #1
	strb	r3, [sp, #16]
	.loc 1 493 19
	movs	r3, #7
	strb	r3, [sp, #18]
	.loc 1 494 20
	movs	r3, #19
	strb	r3, [sp, #19]
	.loc 1 495 20
	movs	r3, #1
	strb	r3, [sp, #17]
	.loc 1 497 5
	add	r3, sp, #16
	movs	r2, #0
	mov	r1, r3
	ldr	r0, [sp, #12]
	bl	sc_call_rpc
	.loc 1 499 8
	ldr	r3, [sp, #8]
	cmp	r3, #0
	beq	.L62
	.loc 1 501 17
	ldr	r2, [sp, #20]
	.loc 1 501 15
	ldr	r3, [sp, #8]
	str	r2, [r3]
.L62:
	.loc 1 504 8
	ldr	r3, [sp, #4]
	cmp	r3, #0
	beq	.L65
	.loc 1 506 17
	ldr	r2, [sp, #24]
	.loc 1 506 15
	ldr	r3, [sp, #4]
	str	r2, [r3]
	.loc 1 509 5
	nop
.L65:
	nop
	.loc 1 510 1
	add	sp, sp, #52
.LCFI68:
	@ sp needed
	ldr	pc, [sp], #4
.LFE22:
	.size	sc_misc_unique_id, .-sc_misc_unique_id
	.section	.text.sc_misc_set_ari,"ax",%progbits
	.align	1
	.global	sc_misc_set_ari
	.syntax unified
	.thumb
	.thumb_func
	.fpu softvfp
	.type	sc_misc_set_ari, %function
sc_misc_set_ari:
.LFB23:
	.loc 1 514 1
	@ args = 4, pretend = 0, frame = 56
	@ frame_needed = 0, uses_anonymous_args = 0
	push	{lr}
.LCFI69:
	sub	sp, sp, #60
.LCFI70:
	str	r0, [sp, #12]
	mov	r0, r1
	mov	r1, r2
	mov	r2, r3
	mov	r3, r0	@ movhi
	strh	r3, [sp, #10]	@ movhi
	mov	r3, r1	@ movhi
	strh	r3, [sp, #8]	@ movhi
	mov	r3, r2	@ movhi
	strh	r3, [sp, #6]	@ movhi
	.loc 1 518 19
	movs	r3, #1
	strb	r3, [sp, #20]
	.loc 1 519 19
	movs	r3, #7
	strb	r3, [sp, #22]
	.loc 1 520 20
	movs	r3, #3
	strb	r3, [sp, #23]
	.loc 1 521 23
	ldrh	r3, [sp, #10]	@ movhi
	strh	r3, [sp, #24]	@ movhi
	.loc 1 522 23
	ldrh	r3, [sp, #8]	@ movhi
	strh	r3, [sp, #26]	@ movhi
	.loc 1 523 23
	ldrh	r3, [sp, #6]	@ movhi
	strh	r3, [sp, #28]	@ movhi
	.loc 1 524 24
	ldrb	r3, [sp, #64]	@ zero_extendqisi2
	cmp	r3, #0
	ite	ne
	movne	r3, #1
	moveq	r3, #0
	uxtb	r3, r3
	.loc 1 524 22
	strb	r3, [sp, #30]
	.loc 1 525 20
	movs	r3, #3
	strb	r3, [sp, #21]
	.loc 1 527 5
	add	r3, sp, #20
	movs	r2, #0
	mov	r1, r3
	ldr	r0, [sp, #12]
	bl	sc_call_rpc
	.loc 1 529 12
	ldrb	r3, [sp, #23]
	strb	r3, [sp, #55]
	.loc 1 530 12
	ldrb	r3, [sp, #55]	@ zero_extendqisi2
	.loc 1 531 1
	mov	r0, r3
	add	sp, sp, #60
.LCFI71:
	@ sp needed
	ldr	pc, [sp], #4
.LFE23:
	.size	sc_misc_set_ari, .-sc_misc_set_ari
	.section	.text.sc_misc_boot_status,"ax",%progbits
	.align	1
	.global	sc_misc_boot_status
	.syntax unified
	.thumb
	.thumb_func
	.fpu softvfp
	.type	sc_misc_boot_status, %function
sc_misc_boot_status:
.LFB24:
	.loc 1 534 1
	@ args = 0, pretend = 0, frame = 40
	@ frame_needed = 0, uses_anonymous_args = 0
	push	{lr}
.LCFI72:
	sub	sp, sp, #44
.LCFI73:
	str	r0, [sp, #4]
	mov	r3, r1
	strb	r3, [sp, #3]
	.loc 1 537 19
	movs	r3, #1
	strb	r3, [sp, #8]
	.loc 1 538 19
	movs	r3, #7
	strb	r3, [sp, #10]
	.loc 1 539 20
	movs	r3, #7
	strb	r3, [sp, #11]
	.loc 1 540 22
	ldrb	r3, [sp, #3]
	strb	r3, [sp, #12]
	.loc 1 541 20
	movs	r3, #2
	strb	r3, [sp, #9]
	.loc 1 543 5
	add	r3, sp, #8
	movs	r2, #1
	mov	r1, r3
	ldr	r0, [sp, #4]
	bl	sc_call_rpc
	.loc 1 545 5
	nop
	.loc 1 546 1
	add	sp, sp, #44
.LCFI74:
	@ sp needed
	ldr	pc, [sp], #4
.LFE24:
	.size	sc_misc_boot_status, .-sc_misc_boot_status
	.section	.text.sc_misc_boot_done,"ax",%progbits
	.align	1
	.global	sc_misc_boot_done
	.syntax unified
	.thumb
	.thumb_func
	.fpu softvfp
	.type	sc_misc_boot_done, %function
sc_misc_boot_done:
.LFB25:
	.loc 1 549 1
	@ args = 0, pretend = 0, frame = 48
	@ frame_needed = 0, uses_anonymous_args = 0
	push	{lr}
.LCFI75:
	sub	sp, sp, #52
.LCFI76:
	str	r0, [sp, #4]
	mov	r3, r1
	strh	r3, [sp, #2]	@ movhi
	.loc 1 553 19
	movs	r3, #1
	strb	r3, [sp, #12]
	.loc 1 554 19
	movs	r3, #7
	strb	r3, [sp, #14]
	.loc 1 555 20
	movs	r3, #14
	strb	r3, [sp, #15]
	.loc 1 556 23
	ldrh	r3, [sp, #2]	@ movhi
	strh	r3, [sp, #16]	@ movhi
	.loc 1 557 20
	movs	r3, #2
	strb	r3, [sp, #13]
	.loc 1 559 5
	add	r3, sp, #12
	movs	r2, #0
	mov	r1, r3
	ldr	r0, [sp, #4]
	bl	sc_call_rpc
	.loc 1 561 12
	ldrb	r3, [sp, #15]
	strb	r3, [sp, #47]
	.loc 1 562 12
	ldrb	r3, [sp, #47]	@ zero_extendqisi2
	.loc 1 563 1
	mov	r0, r3
	add	sp, sp, #52
.LCFI77:
	@ sp needed
	ldr	pc, [sp], #4
.LFE25:
	.size	sc_misc_boot_done, .-sc_misc_boot_done
	.section	.text.sc_misc_otp_fuse_read,"ax",%progbits
	.align	1
	.global	sc_misc_otp_fuse_read
	.syntax unified
	.thumb
	.thumb_func
	.fpu softvfp
	.type	sc_misc_otp_fuse_read, %function
sc_misc_otp_fuse_read:
.LFB26:
	.loc 1 566 1
	@ args = 0, pretend = 0, frame = 56
	@ frame_needed = 0, uses_anonymous_args = 0
	push	{lr}
.LCFI78:
	sub	sp, sp, #60
.LCFI79:
	str	r0, [sp, #12]
	str	r1, [sp, #8]
	str	r2, [sp, #4]
	.loc 1 570 19
	movs	r3, #1
	strb	r3, [sp, #20]
	.loc 1 571 19
	movs	r3, #7
	strb	r3, [sp, #22]
	.loc 1 572 20
	movs	r3, #11
	strb	r3, [sp, #23]
	.loc 1 573 23
	ldr	r3, [sp, #8]
	str	r3, [sp, #24]
	.loc 1 574 20
	movs	r3, #2
	strb	r3, [sp, #21]
	.loc 1 576 5
	add	r3, sp, #20
	movs	r2, #0
	mov	r1, r3
	ldr	r0, [sp, #12]
	bl	sc_call_rpc
	.loc 1 578 8
	ldr	r3, [sp, #4]
	cmp	r3, #0
	beq	.L73
	.loc 1 580 16
	ldr	r2, [sp, #24]
	.loc 1 580 14
	ldr	r3, [sp, #4]
	str	r2, [r3]
.L73:
	.loc 1 583 12
	ldrb	r3, [sp, #23]
	strb	r3, [sp, #55]
	.loc 1 584 12
	ldrb	r3, [sp, #55]	@ zero_extendqisi2
	.loc 1 585 1
	mov	r0, r3
	add	sp, sp, #60
.LCFI80:
	@ sp needed
	ldr	pc, [sp], #4
.LFE26:
	.size	sc_misc_otp_fuse_read, .-sc_misc_otp_fuse_read
	.section	.text.sc_misc_otp_fuse_write,"ax",%progbits
	.align	1
	.global	sc_misc_otp_fuse_write
	.syntax unified
	.thumb
	.thumb_func
	.fpu softvfp
	.type	sc_misc_otp_fuse_write, %function
sc_misc_otp_fuse_write:
.LFB27:
	.loc 1 588 1
	@ args = 0, pretend = 0, frame = 56
	@ frame_needed = 0, uses_anonymous_args = 0
	push	{lr}
.LCFI81:
	sub	sp, sp, #60
.LCFI82:
	str	r0, [sp, #12]
	str	r1, [sp, #8]
	str	r2, [sp, #4]
	.loc 1 592 19
	movs	r3, #1
	strb	r3, [sp, #20]
	.loc 1 593 19
	movs	r3, #7
	strb	r3, [sp, #22]
	.loc 1 594 20
	movs	r3, #17
	strb	r3, [sp, #23]
	.loc 1 595 23
	ldr	r3, [sp, #8]
	str	r3, [sp, #24]
	.loc 1 596 23
	ldr	r3, [sp, #4]
	str	r3, [sp, #28]
	.loc 1 597 20
	movs	r3, #3
	strb	r3, [sp, #21]
	.loc 1 599 5
	add	r3, sp, #20
	movs	r2, #0
	mov	r1, r3
	ldr	r0, [sp, #12]
	bl	sc_call_rpc
	.loc 1 601 12
	ldrb	r3, [sp, #23]
	strb	r3, [sp, #55]
	.loc 1 602 12
	ldrb	r3, [sp, #55]	@ zero_extendqisi2
	.loc 1 603 1
	mov	r0, r3
	add	sp, sp, #60
.LCFI83:
	@ sp needed
	ldr	pc, [sp], #4
.LFE27:
	.size	sc_misc_otp_fuse_write, .-sc_misc_otp_fuse_write
	.section	.text.sc_misc_set_temp,"ax",%progbits
	.align	1
	.global	sc_misc_set_temp
	.syntax unified
	.thumb
	.thumb_func
	.fpu softvfp
	.type	sc_misc_set_temp, %function
sc_misc_set_temp:
.LFB28:
	.loc 1 607 1
	@ args = 4, pretend = 0, frame = 56
	@ frame_needed = 0, uses_anonymous_args = 0
	push	{lr}
.LCFI84:
	sub	sp, sp, #60
.LCFI85:
	str	r0, [sp, #12]
	mov	r0, r1
	mov	r1, r2
	mov	r2, r3
	mov	r3, r0	@ movhi
	strh	r3, [sp, #10]	@ movhi
	mov	r3, r1
	strb	r3, [sp, #9]
	mov	r3, r2	@ movhi
	strh	r3, [sp, #6]	@ movhi
	.loc 1 611 19
	movs	r3, #1
	strb	r3, [sp, #20]
	.loc 1 612 19
	movs	r3, #7
	strb	r3, [sp, #22]
	.loc 1 613 20
	movs	r3, #12
	strb	r3, [sp, #23]
	.loc 1 614 23
	ldrh	r3, [sp, #10]	@ movhi
	strh	r3, [sp, #24]	@ movhi
	.loc 1 615 23
	ldrh	r3, [sp, #6]	@ movhi
	strh	r3, [sp, #26]	@ movhi
	.loc 1 616 22
	ldrb	r3, [sp, #9]
	strb	r3, [sp, #28]
	.loc 1 617 22
	ldrb	r3, [sp, #64]
	strb	r3, [sp, #29]
	.loc 1 618 20
	movs	r3, #3
	strb	r3, [sp, #21]
	.loc 1 620 5
	add	r3, sp, #20
	movs	r2, #0
	mov	r1, r3
	ldr	r0, [sp, #12]
	bl	sc_call_rpc
	.loc 1 622 12
	ldrb	r3, [sp, #23]
	strb	r3, [sp, #55]
	.loc 1 623 12
	ldrb	r3, [sp, #55]	@ zero_extendqisi2
	.loc 1 624 1
	mov	r0, r3
	add	sp, sp, #60
.LCFI86:
	@ sp needed
	ldr	pc, [sp], #4
.LFE28:
	.size	sc_misc_set_temp, .-sc_misc_set_temp
	.section	.text.sc_misc_get_temp,"ax",%progbits
	.align	1
	.global	sc_misc_get_temp
	.syntax unified
	.thumb
	.thumb_func
	.fpu softvfp
	.type	sc_misc_get_temp, %function
sc_misc_get_temp:
.LFB29:
	.loc 1 628 1
	@ args = 4, pretend = 0, frame = 56
	@ frame_needed = 0, uses_anonymous_args = 0
	push	{lr}
.LCFI87:
	sub	sp, sp, #60
.LCFI88:
	str	r0, [sp, #12]
	str	r3, [sp, #4]
	mov	r3, r1	@ movhi
	strh	r3, [sp, #10]	@ movhi
	mov	r3, r2
	strb	r3, [sp, #9]
	.loc 1 632 19
	movs	r3, #1
	strb	r3, [sp, #20]
	.loc 1 633 19
	movs	r3, #7
	strb	r3, [sp, #22]
	.loc 1 634 20
	movs	r3, #13
	strb	r3, [sp, #23]
	.loc 1 635 23
	ldrh	r3, [sp, #10]	@ movhi
	strh	r3, [sp, #24]	@ movhi
	.loc 1 636 22
	ldrb	r3, [sp, #9]
	strb	r3, [sp, #26]
	.loc 1 637 20
	movs	r3, #2
	strb	r3, [sp, #21]
	.loc 1 639 5
	add	r3, sp, #20
	movs	r2, #0
	mov	r1, r3
	ldr	r0, [sp, #12]
	bl	sc_call_rpc
	.loc 1 641 8
	ldr	r3, [sp, #4]
	cmp	r3, #0
	beq	.L80
	.loc 1 643 20
	ldrsh	r2, [sp, #24]
	.loc 1 643 18
	ldr	r3, [sp, #4]
	strh	r2, [r3]	@ movhi
.L80:
	.loc 1 646 12
	ldrb	r3, [sp, #23]
	strb	r3, [sp, #55]
	.loc 1 647 8
	ldr	r3, [sp, #64]
	cmp	r3, #0
	beq	.L81
	.loc 1 649 19
	ldrsb	r2, [sp, #26]
	.loc 1 649 17
	ldr	r3, [sp, #64]
	strb	r2, [r3]
.L81:
	.loc 1 652 12
	ldrb	r3, [sp, #55]	@ zero_extendqisi2
	.loc 1 653 1
	mov	r0, r3
	add	sp, sp, #60
.LCFI89:
	@ sp needed
	ldr	pc, [sp], #4
.LFE29:
	.size	sc_misc_get_temp, .-sc_misc_get_temp
	.section	.text.sc_misc_get_boot_dev,"ax",%progbits
	.align	1
	.global	sc_misc_get_boot_dev
	.syntax unified
	.thumb
	.thumb_func
	.fpu softvfp
	.type	sc_misc_get_boot_dev, %function
sc_misc_get_boot_dev:
.LFB30:
	.loc 1 656 1
	@ args = 0, pretend = 0, frame = 40
	@ frame_needed = 0, uses_anonymous_args = 0
	push	{lr}
.LCFI90:
	sub	sp, sp, #44
.LCFI91:
	str	r0, [sp, #4]
	str	r1, [sp]
	.loc 1 659 19
	movs	r3, #1
	strb	r3, [sp, #8]
	.loc 1 660 19
	movs	r3, #7
	strb	r3, [sp, #10]
	.loc 1 661 20
	movs	r3, #16
	strb	r3, [sp, #11]
	.loc 1 662 20
	movs	r3, #1
	strb	r3, [sp, #9]
	.loc 1 664 5
	add	r3, sp, #8
	movs	r2, #0
	mov	r1, r3
	ldr	r0, [sp, #4]
	bl	sc_call_rpc
	.loc 1 666 8
	ldr	r3, [sp]
	cmp	r3, #0
	beq	.L86
	.loc 1 668 16
	ldrh	r2, [sp, #12]
	.loc 1 668 14
	ldr	r3, [sp]
	strh	r2, [r3]	@ movhi
	.loc 1 671 5
	nop
.L86:
	nop
	.loc 1 672 1
	add	sp, sp, #44
.LCFI92:
	@ sp needed
	ldr	pc, [sp], #4
.LFE30:
	.size	sc_misc_get_boot_dev, .-sc_misc_get_boot_dev
	.section	.text.sc_misc_get_boot_type,"ax",%progbits
	.align	1
	.global	sc_misc_get_boot_type
	.syntax unified
	.thumb
	.thumb_func
	.fpu softvfp
	.type	sc_misc_get_boot_type, %function
sc_misc_get_boot_type:
.LFB31:
	.loc 1 675 1
	@ args = 0, pretend = 0, frame = 48
	@ frame_needed = 0, uses_anonymous_args = 0
	push	{lr}
.LCFI93:
	sub	sp, sp, #52
.LCFI94:
	str	r0, [sp, #4]
	str	r1, [sp]
	.loc 1 679 19
	movs	r3, #1
	strb	r3, [sp, #12]
	.loc 1 680 19
	movs	r3, #7
	strb	r3, [sp, #14]
	.loc 1 681 20
	movs	r3, #33
	strb	r3, [sp, #15]
	.loc 1 682 20
	movs	r3, #1
	strb	r3, [sp, #13]
	.loc 1 684 5
	add	r3, sp, #12
	movs	r2, #0
	mov	r1, r3
	ldr	r0, [sp, #4]
	bl	sc_call_rpc
	.loc 1 686 12
	ldrb	r3, [sp, #15]
	strb	r3, [sp, #47]
	.loc 1 687 8
	ldr	r3, [sp]
	cmp	r3, #0
	beq	.L88
	.loc 1 689 17
	ldrb	r2, [sp, #16]	@ zero_extendqisi2
	.loc 1 689 15
	ldr	r3, [sp]
	strb	r2, [r3]
.L88:
	.loc 1 692 12
	ldrb	r3, [sp, #47]	@ zero_extendqisi2
	.loc 1 693 1
	mov	r0, r3
	add	sp, sp, #52
.LCFI95:
	@ sp needed
	ldr	pc, [sp], #4
.LFE31:
	.size	sc_misc_get_boot_type, .-sc_misc_get_boot_type
	.section	.text.sc_misc_get_button_status,"ax",%progbits
	.align	1
	.global	sc_misc_get_button_status
	.syntax unified
	.thumb
	.thumb_func
	.fpu softvfp
	.type	sc_misc_get_button_status, %function
sc_misc_get_button_status:
.LFB32:
	.loc 1 696 1
	@ args = 0, pretend = 0, frame = 40
	@ frame_needed = 0, uses_anonymous_args = 0
	push	{lr}
.LCFI96:
	sub	sp, sp, #44
.LCFI97:
	str	r0, [sp, #4]
	str	r1, [sp]
	.loc 1 699 19
	movs	r3, #1
	strb	r3, [sp, #8]
	.loc 1 700 19
	movs	r3, #7
	strb	r3, [sp, #10]
	.loc 1 701 20
	movs	r3, #18
	strb	r3, [sp, #11]
	.loc 1 702 20
	movs	r3, #1
	strb	r3, [sp, #9]
	.loc 1 704 5
	add	r3, sp, #8
	movs	r2, #0
	mov	r1, r3
	ldr	r0, [sp, #4]
	bl	sc_call_rpc
	.loc 1 706 8
	ldr	r3, [sp]
	cmp	r3, #0
	beq	.L93
	.loc 1 708 19
	ldrb	r3, [sp, #12]	@ zero_extendqisi2
	cmp	r3, #0
	ite	ne
	movne	r3, #1
	moveq	r3, #0
	uxtb	r3, r3
	mov	r2, r3
	.loc 1 708 17
	ldr	r3, [sp]
	strb	r2, [r3]
	.loc 1 711 5
	nop
.L93:
	nop
	.loc 1 712 1
	add	sp, sp, #44
.LCFI98:
	@ sp needed
	ldr	pc, [sp], #4
.LFE32:
	.size	sc_misc_get_button_status, .-sc_misc_get_button_status
	.section	.text.sc_misc_rompatch_checksum,"ax",%progbits
	.align	1
	.global	sc_misc_rompatch_checksum
	.syntax unified
	.thumb
	.thumb_func
	.fpu softvfp
	.type	sc_misc_rompatch_checksum, %function
sc_misc_rompatch_checksum:
.LFB33:
	.loc 1 715 1
	@ args = 0, pretend = 0, frame = 48
	@ frame_needed = 0, uses_anonymous_args = 0
	push	{lr}
.LCFI99:
	sub	sp, sp, #52
.LCFI100:
	str	r0, [sp, #4]
	str	r1, [sp]
	.loc 1 719 19
	movs	r3, #1
	strb	r3, [sp, #12]
	.loc 1 720 19
	movs	r3, #7
	strb	r3, [sp, #14]
	.loc 1 721 20
	movs	r3, #26
	strb	r3, [sp, #15]
	.loc 1 722 20
	movs	r3, #1
	strb	r3, [sp, #13]
	.loc 1 724 5
	add	r3, sp, #12
	movs	r2, #0
	mov	r1, r3
	ldr	r0, [sp, #4]
	bl	sc_call_rpc
	.loc 1 726 8
	ldr	r3, [sp]
	cmp	r3, #0
	beq	.L95
	.loc 1 728 21
	ldr	r2, [sp, #16]
	.loc 1 728 19
	ldr	r3, [sp]
	str	r2, [r3]
.L95:
	.loc 1 731 12
	ldrb	r3, [sp, #15]
	strb	r3, [sp, #47]
	.loc 1 732 12
	ldrb	r3, [sp, #47]	@ zero_extendqisi2
	.loc 1 733 1
	mov	r0, r3
	add	sp, sp, #52
.LCFI101:
	@ sp needed
	ldr	pc, [sp], #4
.LFE33:
	.size	sc_misc_rompatch_checksum, .-sc_misc_rompatch_checksum
	.section	.text.sc_misc_board_ioctl,"ax",%progbits
	.align	1
	.global	sc_misc_board_ioctl
	.syntax unified
	.thumb
	.thumb_func
	.fpu softvfp
	.type	sc_misc_board_ioctl, %function
sc_misc_board_ioctl:
.LFB34:
	.loc 1 737 1
	@ args = 0, pretend = 0, frame = 56
	@ frame_needed = 0, uses_anonymous_args = 0
	push	{lr}
.LCFI102:
	sub	sp, sp, #60
.LCFI103:
	str	r0, [sp, #12]
	str	r1, [sp, #8]
	str	r2, [sp, #4]
	str	r3, [sp]
	.loc 1 741 19
	movs	r3, #1
	strb	r3, [sp, #20]
	.loc 1 742 19
	movs	r3, #7
	strb	r3, [sp, #22]
	.loc 1 743 20
	movs	r3, #34
	strb	r3, [sp, #23]
	.loc 1 744 25
	ldr	r3, [sp, #8]
	ldr	r3, [r3]
	.loc 1 744 23
	str	r3, [sp, #24]
	.loc 1 745 25
	ldr	r3, [sp, #4]
	ldr	r3, [r3]
	.loc 1 745 23
	str	r3, [sp, #28]
	.loc 1 746 25
	ldr	r3, [sp]
	ldr	r3, [r3]
	.loc 1 746 23
	str	r3, [sp, #32]
	.loc 1 747 20
	movs	r3, #4
	strb	r3, [sp, #21]
	.loc 1 749 5
	add	r3, sp, #20
	movs	r2, #0
	mov	r1, r3
	ldr	r0, [sp, #12]
	bl	sc_call_rpc
	.loc 1 751 14
	ldr	r2, [sp, #24]
	.loc 1 751 12
	ldr	r3, [sp, #8]
	str	r2, [r3]
	.loc 1 752 14
	ldr	r2, [sp, #28]
	.loc 1 752 12
	ldr	r3, [sp, #4]
	str	r2, [r3]
	.loc 1 753 14
	ldr	r2, [sp, #32]
	.loc 1 753 12
	ldr	r3, [sp]
	str	r2, [r3]
	.loc 1 754 12
	ldrb	r3, [sp, #23]
	strb	r3, [sp, #55]
	.loc 1 755 12
	ldrb	r3, [sp, #55]	@ zero_extendqisi2
	.loc 1 756 1
	mov	r0, r3
	add	sp, sp, #60
.LCFI104:
	@ sp needed
	ldr	pc, [sp], #4
.LFE34:
	.size	sc_misc_board_ioctl, .-sc_misc_board_ioctl
	.section	.debug_frame,"",%progbits
.Lframe0:
	.4byte	.LECIE0-.LSCIE0
.LSCIE0:
	.4byte	0xffffffff
	.byte	0x3
	.ascii	"\000"
	.uleb128 0x1
	.sleb128 -4
	.uleb128 0xe
	.byte	0xc
	.uleb128 0xd
	.uleb128 0
	.align	2
.LECIE0:
.LSFDE0:
	.4byte	.LEFDE0-.LASFDE0
.LASFDE0:
	.4byte	.Lframe0
	.4byte	.LFB0
	.4byte	.LFE0-.LFB0
	.byte	0x4
	.4byte	.LCFI0-.LFB0
	.byte	0xe
	.uleb128 0x4
	.byte	0x8e
	.uleb128 0x1
	.byte	0x4
	.4byte	.LCFI1-.LCFI0
	.byte	0xe
	.uleb128 0x40
	.byte	0x4
	.4byte	.LCFI2-.LCFI1
	.byte	0xe
	.uleb128 0x4
	.align	2
.LEFDE0:
.LSFDE2:
	.4byte	.LEFDE2-.LASFDE2
.LASFDE2:
	.4byte	.Lframe0
	.4byte	.LFB1
	.4byte	.LFE1-.LFB1
	.byte	0x4
	.4byte	.LCFI3-.LFB1
	.byte	0xe
	.uleb128 0x4
	.byte	0x8e
	.uleb128 0x1
	.byte	0x4
	.4byte	.LCFI4-.LCFI3
	.byte	0xe
	.uleb128 0x40
	.byte	0x4
	.4byte	.LCFI5-.LCFI4
	.byte	0xe
	.uleb128 0x4
	.align	2
.LEFDE2:
.LSFDE4:
	.4byte	.LEFDE4-.LASFDE4
.LASFDE4:
	.4byte	.Lframe0
	.4byte	.LFB2
	.4byte	.LFE2-.LFB2
	.byte	0x4
	.4byte	.LCFI6-.LFB2
	.byte	0xe
	.uleb128 0x4
	.byte	0x8e
	.uleb128 0x1
	.byte	0x4
	.4byte	.LCFI7-.LCFI6
	.byte	0xe
	.uleb128 0x38
	.byte	0x4
	.4byte	.LCFI8-.LCFI7
	.byte	0xe
	.uleb128 0x4
	.align	2
.LEFDE4:
.LSFDE6:
	.4byte	.LEFDE6-.LASFDE6
.LASFDE6:
	.4byte	.Lframe0
	.4byte	.LFB3
	.4byte	.LFE3-.LFB3
	.byte	0x4
	.4byte	.LCFI9-.LFB3
	.byte	0xe
	.uleb128 0x4
	.byte	0x8e
	.uleb128 0x1
	.byte	0x4
	.4byte	.LCFI10-.LCFI9
	.byte	0xe
	.uleb128 0x38
	.byte	0x4
	.4byte	.LCFI11-.LCFI10
	.byte	0xe
	.uleb128 0x4
	.align	2
.LEFDE6:
.LSFDE8:
	.4byte	.LEFDE8-.LASFDE8
.LASFDE8:
	.4byte	.Lframe0
	.4byte	.LFB4
	.4byte	.LFE4-.LFB4
	.byte	0x4
	.4byte	.LCFI12-.LFB4
	.byte	0xe
	.uleb128 0x4
	.byte	0x8e
	.uleb128 0x1
	.byte	0x4
	.4byte	.LCFI13-.LCFI12
	.byte	0xe
	.uleb128 0x40
	.byte	0x4
	.4byte	.LCFI14-.LCFI13
	.byte	0xe
	.uleb128 0x4
	.align	2
.LEFDE8:
.LSFDE10:
	.4byte	.LEFDE10-.LASFDE10
.LASFDE10:
	.4byte	.Lframe0
	.4byte	.LFB5
	.4byte	.LFE5-.LFB5
	.byte	0x4
	.4byte	.LCFI15-.LFB5
	.byte	0xe
	.uleb128 0x4
	.byte	0x8e
	.uleb128 0x1
	.byte	0x4
	.4byte	.LCFI16-.LCFI15
	.byte	0xe
	.uleb128 0x40
	.byte	0x4
	.4byte	.LCFI17-.LCFI16
	.byte	0xe
	.uleb128 0x4
	.align	2
.LEFDE10:
.LSFDE12:
	.4byte	.LEFDE12-.LASFDE12
.LASFDE12:
	.4byte	.Lframe0
	.4byte	.LFB6
	.4byte	.LFE6-.LFB6
	.byte	0x4
	.4byte	.LCFI18-.LFB6
	.byte	0xe
	.uleb128 0x4
	.byte	0x8e
	.uleb128 0x1
	.byte	0x4
	.4byte	.LCFI19-.LCFI18
	.byte	0xe
	.uleb128 0x40
	.byte	0x4
	.4byte	.LCFI20-.LCFI19
	.byte	0xe
	.uleb128 0x4
	.align	2
.LEFDE12:
.LSFDE14:
	.4byte	.LEFDE14-.LASFDE14
.LASFDE14:
	.4byte	.Lframe0
	.4byte	.LFB7
	.4byte	.LFE7-.LFB7
	.byte	0x4
	.4byte	.LCFI21-.LFB7
	.byte	0xe
	.uleb128 0x4
	.byte	0x8e
	.uleb128 0x1
	.byte	0x4
	.4byte	.LCFI22-.LCFI21
	.byte	0xe
	.uleb128 0x40
	.byte	0x4
	.4byte	.LCFI23-.LCFI22
	.byte	0xe
	.uleb128 0x4
	.align	2
.LEFDE14:
.LSFDE16:
	.4byte	.LEFDE16-.LASFDE16
.LASFDE16:
	.4byte	.Lframe0
	.4byte	.LFB8
	.4byte	.LFE8-.LFB8
	.byte	0x4
	.4byte	.LCFI24-.LFB8
	.byte	0xe
	.uleb128 0x4
	.byte	0x8e
	.uleb128 0x1
	.byte	0x4
	.4byte	.LCFI25-.LCFI24
	.byte	0xe
	.uleb128 0x38
	.byte	0x4
	.4byte	.LCFI26-.LCFI25
	.byte	0xe
	.uleb128 0x4
	.align	2
.LEFDE16:
.LSFDE18:
	.4byte	.LEFDE18-.LASFDE18
.LASFDE18:
	.4byte	.Lframe0
	.4byte	.LFB9
	.4byte	.LFE9-.LFB9
	.byte	0x4
	.4byte	.LCFI27-.LFB9
	.byte	0xe
	.uleb128 0x4
	.byte	0x8e
	.uleb128 0x1
	.byte	0x4
	.4byte	.LCFI28-.LCFI27
	.byte	0xe
	.uleb128 0x40
	.byte	0x4
	.4byte	.LCFI29-.LCFI28
	.byte	0xe
	.uleb128 0x4
	.align	2
.LEFDE18:
.LSFDE20:
	.4byte	.LEFDE20-.LASFDE20
.LASFDE20:
	.4byte	.Lframe0
	.4byte	.LFB10
	.4byte	.LFE10-.LFB10
	.byte	0x4
	.4byte	.LCFI30-.LFB10
	.byte	0xe
	.uleb128 0x4
	.byte	0x8e
	.uleb128 0x1
	.byte	0x4
	.4byte	.LCFI31-.LCFI30
	.byte	0xe
	.uleb128 0x38
	.byte	0x4
	.4byte	.LCFI32-.LCFI31
	.byte	0xe
	.uleb128 0x4
	.align	2
.LEFDE20:
.LSFDE22:
	.4byte	.LEFDE22-.LASFDE22
.LASFDE22:
	.4byte	.Lframe0
	.4byte	.LFB11
	.4byte	.LFE11-.LFB11
	.byte	0x4
	.4byte	.LCFI33-.LFB11
	.byte	0xe
	.uleb128 0x4
	.byte	0x8e
	.uleb128 0x1
	.byte	0x4
	.4byte	.LCFI34-.LCFI33
	.byte	0xe
	.uleb128 0x40
	.byte	0x4
	.4byte	.LCFI35-.LCFI34
	.byte	0xe
	.uleb128 0x4
	.align	2
.LEFDE22:
.LSFDE24:
	.4byte	.LEFDE24-.LASFDE24
.LASFDE24:
	.4byte	.Lframe0
	.4byte	.LFB12
	.4byte	.LFE12-.LFB12
	.byte	0x4
	.4byte	.LCFI36-.LFB12
	.byte	0xe
	.uleb128 0x4
	.byte	0x8e
	.uleb128 0x1
	.byte	0x4
	.4byte	.LCFI37-.LCFI36
	.byte	0xe
	.uleb128 0x38
	.byte	0x4
	.4byte	.LCFI38-.LCFI37
	.byte	0xe
	.uleb128 0x4
	.align	2
.LEFDE24:
.LSFDE26:
	.4byte	.LEFDE26-.LASFDE26
.LASFDE26:
	.4byte	.Lframe0
	.4byte	.LFB13
	.4byte	.LFE13-.LFB13
	.byte	0x4
	.4byte	.LCFI39-.LFB13
	.byte	0xe
	.uleb128 0x4
	.byte	0x8e
	.uleb128 0x1
	.byte	0x4
	.4byte	.LCFI40-.LCFI39
	.byte	0xe
	.uleb128 0x40
	.byte	0x4
	.4byte	.LCFI41-.LCFI40
	.byte	0xe
	.uleb128 0x4
	.align	2
.LEFDE26:
.LSFDE28:
	.4byte	.LEFDE28-.LASFDE28
.LASFDE28:
	.4byte	.Lframe0
	.4byte	.LFB14
	.4byte	.LFE14-.LFB14
	.byte	0x4
	.4byte	.LCFI42-.LFB14
	.byte	0xe
	.uleb128 0x4
	.byte	0x8e
	.uleb128 0x1
	.byte	0x4
	.4byte	.LCFI43-.LCFI42
	.byte	0xe
	.uleb128 0x40
	.byte	0x4
	.4byte	.LCFI44-.LCFI43
	.byte	0xe
	.uleb128 0x4
	.align	2
.LEFDE28:
.LSFDE30:
	.4byte	.LEFDE30-.LASFDE30
.LASFDE30:
	.4byte	.Lframe0
	.4byte	.LFB15
	.4byte	.LFE15-.LFB15
	.byte	0x4
	.4byte	.LCFI45-.LFB15
	.byte	0xe
	.uleb128 0x4
	.byte	0x8e
	.uleb128 0x1
	.byte	0x4
	.4byte	.LCFI46-.LCFI45
	.byte	0xe
	.uleb128 0x40
	.byte	0x4
	.4byte	.LCFI47-.LCFI46
	.byte	0xe
	.uleb128 0x4
	.align	2
.LEFDE30:
.LSFDE32:
	.4byte	.LEFDE32-.LASFDE32
.LASFDE32:
	.4byte	.Lframe0
	.4byte	.LFB16
	.4byte	.LFE16-.LFB16
	.byte	0x4
	.4byte	.LCFI48-.LFB16
	.byte	0xe
	.uleb128 0x4
	.byte	0x8e
	.uleb128 0x1
	.byte	0x4
	.4byte	.LCFI49-.LCFI48
	.byte	0xe
	.uleb128 0x40
	.byte	0x4
	.4byte	.LCFI50-.LCFI49
	.byte	0xe
	.uleb128 0x4
	.align	2
.LEFDE32:
.LSFDE34:
	.4byte	.LEFDE34-.LASFDE34
.LASFDE34:
	.4byte	.Lframe0
	.4byte	.LFB17
	.4byte	.LFE17-.LFB17
	.byte	0x4
	.4byte	.LCFI51-.LFB17
	.byte	0xe
	.uleb128 0x4
	.byte	0x8e
	.uleb128 0x1
	.byte	0x4
	.4byte	.LCFI52-.LCFI51
	.byte	0xe
	.uleb128 0x38
	.byte	0x4
	.4byte	.LCFI53-.LCFI52
	.byte	0xe
	.uleb128 0x4
	.align	2
.LEFDE34:
.LSFDE36:
	.4byte	.LEFDE36-.LASFDE36
.LASFDE36:
	.4byte	.Lframe0
	.4byte	.LFB18
	.4byte	.LFE18-.LFB18
	.byte	0x4
	.4byte	.LCFI54-.LFB18
	.byte	0xe
	.uleb128 0x4
	.byte	0x8e
	.uleb128 0x1
	.byte	0x4
	.4byte	.LCFI55-.LCFI54
	.byte	0xe
	.uleb128 0x30
	.byte	0x4
	.4byte	.LCFI56-.LCFI55
	.byte	0xe
	.uleb128 0x4
	.align	2
.LEFDE36:
.LSFDE38:
	.4byte	.LEFDE38-.LASFDE38
.LASFDE38:
	.4byte	.Lframe0
	.4byte	.LFB19
	.4byte	.LFE19-.LFB19
	.byte	0x4
	.4byte	.LCFI57-.LFB19
	.byte	0xe
	.uleb128 0x4
	.byte	0x8e
	.uleb128 0x1
	.byte	0x4
	.4byte	.LCFI58-.LCFI57
	.byte	0xe
	.uleb128 0x38
	.byte	0x4
	.4byte	.LCFI59-.LCFI58
	.byte	0xe
	.uleb128 0x4
	.align	2
.LEFDE38:
.LSFDE40:
	.4byte	.LEFDE40-.LASFDE40
.LASFDE40:
	.4byte	.Lframe0
	.4byte	.LFB20
	.4byte	.LFE20-.LFB20
	.byte	0x4
	.4byte	.LCFI60-.LFB20
	.byte	0xe
	.uleb128 0x4
	.byte	0x8e
	.uleb128 0x1
	.byte	0x4
	.4byte	.LCFI61-.LCFI60
	.byte	0xe
	.uleb128 0x38
	.byte	0x4
	.4byte	.LCFI62-.LCFI61
	.byte	0xe
	.uleb128 0x4
	.align	2
.LEFDE40:
.LSFDE42:
	.4byte	.LEFDE42-.LASFDE42
.LASFDE42:
	.4byte	.Lframe0
	.4byte	.LFB21
	.4byte	.LFE21-.LFB21
	.byte	0x4
	.4byte	.LCFI63-.LFB21
	.byte	0xe
	.uleb128 0x4
	.byte	0x8e
	.uleb128 0x1
	.byte	0x4
	.4byte	.LCFI64-.LCFI63
	.byte	0xe
	.uleb128 0x38
	.byte	0x4
	.4byte	.LCFI65-.LCFI64
	.byte	0xe
	.uleb128 0x4
	.align	2
.LEFDE42:
.LSFDE44:
	.4byte	.LEFDE44-.LASFDE44
.LASFDE44:
	.4byte	.Lframe0
	.4byte	.LFB22
	.4byte	.LFE22-.LFB22
	.byte	0x4
	.4byte	.LCFI66-.LFB22
	.byte	0xe
	.uleb128 0x4
	.byte	0x8e
	.uleb128 0x1
	.byte	0x4
	.4byte	.LCFI67-.LCFI66
	.byte	0xe
	.uleb128 0x38
	.byte	0x4
	.4byte	.LCFI68-.LCFI67
	.byte	0xe
	.uleb128 0x4
	.align	2
.LEFDE44:
.LSFDE46:
	.4byte	.LEFDE46-.LASFDE46
.LASFDE46:
	.4byte	.Lframe0
	.4byte	.LFB23
	.4byte	.LFE23-.LFB23
	.byte	0x4
	.4byte	.LCFI69-.LFB23
	.byte	0xe
	.uleb128 0x4
	.byte	0x8e
	.uleb128 0x1
	.byte	0x4
	.4byte	.LCFI70-.LCFI69
	.byte	0xe
	.uleb128 0x40
	.byte	0x4
	.4byte	.LCFI71-.LCFI70
	.byte	0xe
	.uleb128 0x4
	.align	2
.LEFDE46:
.LSFDE48:
	.4byte	.LEFDE48-.LASFDE48
.LASFDE48:
	.4byte	.Lframe0
	.4byte	.LFB24
	.4byte	.LFE24-.LFB24
	.byte	0x4
	.4byte	.LCFI72-.LFB24
	.byte	0xe
	.uleb128 0x4
	.byte	0x8e
	.uleb128 0x1
	.byte	0x4
	.4byte	.LCFI73-.LCFI72
	.byte	0xe
	.uleb128 0x30
	.byte	0x4
	.4byte	.LCFI74-.LCFI73
	.byte	0xe
	.uleb128 0x4
	.align	2
.LEFDE48:
.LSFDE50:
	.4byte	.LEFDE50-.LASFDE50
.LASFDE50:
	.4byte	.Lframe0
	.4byte	.LFB25
	.4byte	.LFE25-.LFB25
	.byte	0x4
	.4byte	.LCFI75-.LFB25
	.byte	0xe
	.uleb128 0x4
	.byte	0x8e
	.uleb128 0x1
	.byte	0x4
	.4byte	.LCFI76-.LCFI75
	.byte	0xe
	.uleb128 0x38
	.byte	0x4
	.4byte	.LCFI77-.LCFI76
	.byte	0xe
	.uleb128 0x4
	.align	2
.LEFDE50:
.LSFDE52:
	.4byte	.LEFDE52-.LASFDE52
.LASFDE52:
	.4byte	.Lframe0
	.4byte	.LFB26
	.4byte	.LFE26-.LFB26
	.byte	0x4
	.4byte	.LCFI78-.LFB26
	.byte	0xe
	.uleb128 0x4
	.byte	0x8e
	.uleb128 0x1
	.byte	0x4
	.4byte	.LCFI79-.LCFI78
	.byte	0xe
	.uleb128 0x40
	.byte	0x4
	.4byte	.LCFI80-.LCFI79
	.byte	0xe
	.uleb128 0x4
	.align	2
.LEFDE52:
.LSFDE54:
	.4byte	.LEFDE54-.LASFDE54
.LASFDE54:
	.4byte	.Lframe0
	.4byte	.LFB27
	.4byte	.LFE27-.LFB27
	.byte	0x4
	.4byte	.LCFI81-.LFB27
	.byte	0xe
	.uleb128 0x4
	.byte	0x8e
	.uleb128 0x1
	.byte	0x4
	.4byte	.LCFI82-.LCFI81
	.byte	0xe
	.uleb128 0x40
	.byte	0x4
	.4byte	.LCFI83-.LCFI82
	.byte	0xe
	.uleb128 0x4
	.align	2
.LEFDE54:
.LSFDE56:
	.4byte	.LEFDE56-.LASFDE56
.LASFDE56:
	.4byte	.Lframe0
	.4byte	.LFB28
	.4byte	.LFE28-.LFB28
	.byte	0x4
	.4byte	.LCFI84-.LFB28
	.byte	0xe
	.uleb128 0x4
	.byte	0x8e
	.uleb128 0x1
	.byte	0x4
	.4byte	.LCFI85-.LCFI84
	.byte	0xe
	.uleb128 0x40
	.byte	0x4
	.4byte	.LCFI86-.LCFI85
	.byte	0xe
	.uleb128 0x4
	.align	2
.LEFDE56:
.LSFDE58:
	.4byte	.LEFDE58-.LASFDE58
.LASFDE58:
	.4byte	.Lframe0
	.4byte	.LFB29
	.4byte	.LFE29-.LFB29
	.byte	0x4
	.4byte	.LCFI87-.LFB29
	.byte	0xe
	.uleb128 0x4
	.byte	0x8e
	.uleb128 0x1
	.byte	0x4
	.4byte	.LCFI88-.LCFI87
	.byte	0xe
	.uleb128 0x40
	.byte	0x4
	.4byte	.LCFI89-.LCFI88
	.byte	0xe
	.uleb128 0x4
	.align	2
.LEFDE58:
.LSFDE60:
	.4byte	.LEFDE60-.LASFDE60
.LASFDE60:
	.4byte	.Lframe0
	.4byte	.LFB30
	.4byte	.LFE30-.LFB30
	.byte	0x4
	.4byte	.LCFI90-.LFB30
	.byte	0xe
	.uleb128 0x4
	.byte	0x8e
	.uleb128 0x1
	.byte	0x4
	.4byte	.LCFI91-.LCFI90
	.byte	0xe
	.uleb128 0x30
	.byte	0x4
	.4byte	.LCFI92-.LCFI91
	.byte	0xe
	.uleb128 0x4
	.align	2
.LEFDE60:
.LSFDE62:
	.4byte	.LEFDE62-.LASFDE62
.LASFDE62:
	.4byte	.Lframe0
	.4byte	.LFB31
	.4byte	.LFE31-.LFB31
	.byte	0x4
	.4byte	.LCFI93-.LFB31
	.byte	0xe
	.uleb128 0x4
	.byte	0x8e
	.uleb128 0x1
	.byte	0x4
	.4byte	.LCFI94-.LCFI93
	.byte	0xe
	.uleb128 0x38
	.byte	0x4
	.4byte	.LCFI95-.LCFI94
	.byte	0xe
	.uleb128 0x4
	.align	2
.LEFDE62:
.LSFDE64:
	.4byte	.LEFDE64-.LASFDE64
.LASFDE64:
	.4byte	.Lframe0
	.4byte	.LFB32
	.4byte	.LFE32-.LFB32
	.byte	0x4
	.4byte	.LCFI96-.LFB32
	.byte	0xe
	.uleb128 0x4
	.byte	0x8e
	.uleb128 0x1
	.byte	0x4
	.4byte	.LCFI97-.LCFI96
	.byte	0xe
	.uleb128 0x30
	.byte	0x4
	.4byte	.LCFI98-.LCFI97
	.byte	0xe
	.uleb128 0x4
	.align	2
.LEFDE64:
.LSFDE66:
	.4byte	.LEFDE66-.LASFDE66
.LASFDE66:
	.4byte	.Lframe0
	.4byte	.LFB33
	.4byte	.LFE33-.LFB33
	.byte	0x4
	.4byte	.LCFI99-.LFB33
	.byte	0xe
	.uleb128 0x4
	.byte	0x8e
	.uleb128 0x1
	.byte	0x4
	.4byte	.LCFI100-.LCFI99
	.byte	0xe
	.uleb128 0x38
	.byte	0x4
	.4byte	.LCFI101-.LCFI100
	.byte	0xe
	.uleb128 0x4
	.align	2
.LEFDE66:
.LSFDE68:
	.4byte	.LEFDE68-.LASFDE68
.LASFDE68:
	.4byte	.Lframe0
	.4byte	.LFB34
	.4byte	.LFE34-.LFB34
	.byte	0x4
	.4byte	.LCFI102-.LFB34
	.byte	0xe
	.uleb128 0x4
	.byte	0x8e
	.uleb128 0x1
	.byte	0x4
	.4byte	.LCFI103-.LCFI102
	.byte	0xe
	.uleb128 0x40
	.byte	0x4
	.4byte	.LCFI104-.LCFI103
	.byte	0xe
	.uleb128 0x4
	.align	2
.LEFDE68:
	.text
.Letext0:
	.file 2 "C:/Program Files/Rowley CrossWorks for ARM 4.7/include/stdint.h"
	.file 3 "C:/Program Files/Rowley CrossWorks for ARM 4.7/include/__crossworks.h"
	.file 4 "d:\\daten\\git\\nxp_sdk\\devices\\mimx8qm6\\scfw_api\\main\\scfw.h"
	.file 5 "d:\\daten\\git\\nxp_sdk\\devices\\mimx8qm6\\scfw_api\\main\\types.h"
	.file 6 "d:\\daten\\git\\nxp_sdk\\devices\\mimx8qm6\\scfw_api\\svc\\rm\\rm_api.h"
	.file 7 "d:\\daten\\git\\nxp_sdk\\devices\\mimx8qm6\\scfw_api\\svc\\misc\\misc_api.h"
	.file 8 "d:\\daten\\git\\nxp_sdk\\devices\\mimx8qm6\\scfw_api\\main\\rpc.h"